target datalayout = "e-m:e-p270:32:32-p271:32:32-p272:64:64-i64:64-i128:128-f80:128-n8:16:32:64-S128"
target triple = "x86_64-pc-linux-gnu"

@_ZN6evmone6cryptoL12sha_256_bestE = internal global ptr @_ZN6evmone6cryptoL15sha_256_genericEPjPKSt4bytem, align 8

; Function Attrs: mustprogress nounwind uwtable
define internal void @_ZN6evmone6cryptoL5cpuidEPii(ptr noundef %0, i32 noundef %1) #2 {
  %3 = alloca ptr, align 8
  %4 = alloca i32, align 4
  store ptr %0, ptr %3, align 8, !tbaa !13
  store i32 %1, ptr %4, align 4, !tbaa !3
  %5 = load ptr, ptr %3, align 8, !tbaa !13
  %6 = getelementptr inbounds i32, ptr %5, i64 0
  %7 = load ptr, ptr %3, align 8, !tbaa !13
  %8 = getelementptr inbounds i32, ptr %7, i64 1
  %9 = load ptr, ptr %3, align 8, !tbaa !13
  %10 = getelementptr inbounds i32, ptr %9, i64 2
  %11 = load ptr, ptr %3, align 8, !tbaa !13
  %12 = getelementptr inbounds i32, ptr %11, i64 3
  %13 = load i32, ptr %4, align 4, !tbaa !3
  %14 = call { i32, i32, i32, i32 } asm "  xchg$(q$|$)  $(%$|$)rbx,${1:q}\0A  cpuid\0A  xchg$(q$|$)  $(%$|$)rbx,${1:q}", "={ax},=r,={cx},={dx},0,2,~{dirflag},~{fpsr},~{flags}"(i32 %13, i32 0) #13, !srcloc !15
  %15 = extractvalue { i32, i32, i32, i32 } %14, 0
  %16 = extractvalue { i32, i32, i32, i32 } %14, 1
  %17 = extractvalue { i32, i32, i32, i32 } %14, 2
  %18 = extractvalue { i32, i32, i32, i32 } %14, 3
  store i32 %15, ptr %6, align 4, !tbaa !3
  store i32 %16, ptr %8, align 4, !tbaa !3
  store i32 %17, ptr %10, align 4, !tbaa !3
  store i32 %18, ptr %12, align 4, !tbaa !3
  ret void
}

; Function Attrs: mustprogress uwtable
define internal void @_ZN6evmone6cryptoL28select_sha256_implementationEv() #0 {
  %1 = alloca [4 x i32], align 16
  %2 = alloca i32, align 4
  %3 = alloca i8, align 1
  %4 = alloca i8, align 1
  %5 = alloca i8, align 1
  %6 = alloca i8, align 1
  call void @llvm.lifetime.start.p0(ptr %1) #12
  %7 = getelementptr inbounds [4 x i32], ptr %1, i64 0, i64 0
  call void @_ZN6evmone6cryptoL5cpuidEPii(ptr noundef %7, i32 noundef 0)
  call void @llvm.lifetime.start.p0(ptr %2) #12
  %8 = getelementptr inbounds [4 x i32], ptr %1, i64 0, i64 0
  %9 = load i32, ptr %8, align 16, !tbaa !3
  store i32 %9, ptr %2, align 4, !tbaa !3
  call void @llvm.lifetime.start.p0(ptr %3) #12
  store i8 0, ptr %3, align 1, !tbaa !7
  call void @llvm.lifetime.start.p0(ptr %4) #12
  store i8 0, ptr %4, align 1, !tbaa !7
  call void @llvm.lifetime.start.p0(ptr %5) #12
  store i8 0, ptr %5, align 1, !tbaa !7
  call void @llvm.lifetime.start.p0(ptr %6) #12
  store i8 0, ptr %6, align 1, !tbaa !7
  %10 = load i32, ptr %2, align 4, !tbaa !3
  %11 = icmp sge i32 %10, 1
  br i1 %11, label %12, label %19

12:                                               ; preds = %0
  %13 = getelementptr inbounds [4 x i32], ptr %1, i64 0, i64 0
  call void @_ZN6evmone6cryptoL5cpuidEPii(ptr noundef %13, i32 noundef 1)
  %14 = getelementptr inbounds [4 x i32], ptr %1, i64 0, i64 2
  %15 = load i32, ptr %14, align 8, !tbaa !3
  %16 = and i32 %15, 524288
  %17 = icmp ne i32 %16, 0
  %18 = zext i1 %17 to i8
  store i8 %18, ptr %3, align 1, !tbaa !7
  br label %19

19:                                               ; preds = %12, %0
  %20 = load i32, ptr %2, align 4, !tbaa !3
  %21 = icmp sge i32 %20, 7
  br i1 %21, label %22, label %39

22:                                               ; preds = %19
  %23 = getelementptr inbounds [4 x i32], ptr %1, i64 0, i64 0
  call void @_ZN6evmone6cryptoL5cpuidEPii(ptr noundef %23, i32 noundef 7)
  %24 = getelementptr inbounds [4 x i32], ptr %1, i64 0, i64 1
  %25 = load i32, ptr %24, align 4, !tbaa !3
  %26 = and i32 %25, 8
  %27 = icmp ne i32 %26, 0
  %28 = zext i1 %27 to i8
  store i8 %28, ptr %4, align 1, !tbaa !7
  %29 = getelementptr inbounds [4 x i32], ptr %1, i64 0, i64 1
  %30 = load i32, ptr %29, align 4, !tbaa !3
  %31 = and i32 %30, 256
  %32 = icmp ne i32 %31, 0
  %33 = zext i1 %32 to i8
  store i8 %33, ptr %5, align 1, !tbaa !7
  %34 = getelementptr inbounds [4 x i32], ptr %1, i64 0, i64 1
  %35 = load i32, ptr %34, align 4, !tbaa !3
  %36 = and i32 %35, 536870912
  %37 = icmp ne i32 %36, 0
  %38 = zext i1 %37 to i8
  store i8 %38, ptr %6, align 1, !tbaa !7
  br label %39

39:                                               ; preds = %22, %19
  %40 = load i8, ptr %3, align 1, !tbaa !7, !range !9, !noundef !10
  %41 = trunc i8 %40 to i1
  br i1 %41, label %42, label %46

42:                                               ; preds = %39
  %43 = load i8, ptr %6, align 1, !tbaa !7, !range !9, !noundef !10
  %44 = trunc i8 %43 to i1
  br i1 %44, label %45, label %46

45:                                               ; preds = %42
  store ptr @_ZN6evmone6cryptoL15sha_256_x86_shaEPjPKSt4bytem, ptr @_ZN6evmone6cryptoL12sha_256_bestE, align 8, !tbaa !11
  br label %54

46:                                               ; preds = %42, %39
  %47 = load i8, ptr %4, align 1, !tbaa !7, !range !9, !noundef !10
  %48 = trunc i8 %47 to i1
  br i1 %48, label %49, label %53

49:                                               ; preds = %46
  %50 = load i8, ptr %5, align 1, !tbaa !7, !range !9, !noundef !10
  %51 = trunc i8 %50 to i1
  br i1 %51, label %52, label %53

52:                                               ; preds = %49
  store ptr @_ZN6evmone6cryptoL15sha_256_x86_bmiEPjPKSt4bytem, ptr @_ZN6evmone6cryptoL12sha_256_bestE, align 8, !tbaa !11
  br label %53

53:                                               ; preds = %52, %49, %46
  br label %54

54:                                               ; preds = %53, %45
  call void @llvm.lifetime.end.p0(ptr %6) #12
  call void @llvm.lifetime.end.p0(ptr %5) #12
  call void @llvm.lifetime.end.p0(ptr %4) #12
  call void @llvm.lifetime.end.p0(ptr %3) #12
  call void @llvm.lifetime.end.p0(ptr %2) #12
  call void @llvm.lifetime.end.p0(ptr %1) #12
  ret void
}