; Function Attrs: mustprogress nounwind memory(write, argmem: none, inaccessiblemem: none) uwtable
define internal void @_ZN6evmone6cryptoL28select_sha256_implementationEv() #0 {
  %1 = tail call { i32, i32, i32, i32 } asm "  xchg$(q$|$)  $(%$|$)rbx,${1:q}\0A  cpuid\0A  xchg$(q$|$)  $(%$|$)rbx,${1:q}", "={ax},=r,={cx},={dx},0,2,~{dirflag},~{fpsr},~{flags}"(i32 0, i32 0) #10, !srcloc !3
  %2 = extractvalue { i32, i32, i32, i32 } %1, 0
  %3 = icmp sgt i32 %2, 0
  br i1 %3, label %4, label %.thread20

4:                                                ; preds = %0
  %5 = tail call { i32, i32, i32, i32 } asm "  xchg$(q$|$)  $(%$|$)rbx,${1:q}\0A  cpuid\0A  xchg$(q$|$)  $(%$|$)rbx,${1:q}", "={ax},=r,={cx},={dx},0,2,~{dirflag},~{fpsr},~{flags}"(i32 1, i32 0) #10, !srcloc !3
  %6 = icmp samesign ugt i32 %2, 6
  br i1 %6, label %7, label %.thread20

7:                                                ; preds = %4
  %8 = extractvalue { i32, i32, i32, i32 } %5, 2
  %9 = and i32 %8, 524288
  %10 = icmp ne i32 %9, 0
  %11 = tail call { i32, i32, i32, i32 } asm "  xchg$(q$|$)  $(%$|$)rbx,${1:q}\0A  cpuid\0A  xchg$(q$|$)  $(%$|$)rbx,${1:q}", "={ax},=r,={cx},={dx},0,2,~{dirflag},~{fpsr},~{flags}"(i32 7, i32 0) #10, !srcloc !3
  %12 = extractvalue { i32, i32, i32, i32 } %11, 1
  %13 = and i32 %12, 536870912
  %14 = icmp ne i32 %13, 0
  %or.cond = select i1 %10, i1 %14, i1 false
  br i1 %or.cond, label %.thread20.sink.split, label %15

15:                                               ; preds = %7
  %16 = and i32 %12, 264
  %17 = icmp eq i32 %16, 264
  br i1 %17, label %.thread20.sink.split, label %.thread20

.thread20.sink.split:                             ; preds = %15, %7
  %_ZN6evmone6cryptoL15sha_256_x86_bmiEPjPKSt4bytem.sink = phi ptr [ @_ZN6evmone6cryptoL15sha_256_x86_shaEPjPKSt4bytem, %7 ], [ @_ZN6evmone6cryptoL15sha_256_x86_bmiEPjPKSt4bytem, %15 ]
  store ptr %_ZN6evmone6cryptoL15sha_256_x86_bmiEPjPKSt4bytem.sink, ptr @_ZN6evmone6cryptoL12sha_256_bestE, align 8, !tbaa !4
  br label %.thread20

.thread20:                                        ; preds = %.thread20.sink.split, %4, %0, %15
  ret void
}